target datalayout = "e-m:e-p270:32:32-p271:32:32-p272:64:64-i64:64-i128:128-f80:128-n8:16:32:64-S128"
target triple = "x86_64-pc-linux-gnu"

%struct.FunctionCallInfoBaseData = type { ptr, ptr, ptr, i32, i8, i16, [0 x %struct.NullableDatum] }
%struct.NullableDatum = type { i64, i8 }

@.str.1 = private unnamed_addr constant [14 x i8] c"windowfuncs.c\00", align 1
@.str.2 = private unnamed_addr constant [48 x i8] c"argument of nth_value must be greater than zero\00", align 1
@__func__.window_nth_value = private unnamed_addr constant [17 x i8] c"window_nth_value\00", align 1

; Function Attrs: inlinehint nounwind uwtable
define internal i32 @DatumGetInt32(i64 noundef %0) #3 {
  %2 = alloca i64, align 8
  store i64 %0, ptr %2, align 8
  %3 = load i64, ptr %2, align 8
  %4 = trunc i64 %3 to i32
  ret i32 %4
}

; Function Attrs: nounwind uwtable
define dso_local i64 @window_nth_value(ptr noundef %0) #0 {
  %2 = alloca i64, align 8
  %3 = alloca ptr, align 8
  %4 = alloca ptr, align 8
  %5 = alloca i8, align 1
  %6 = alloca i64, align 8
  %7 = alloca i8, align 1
  %8 = alloca i32, align 4
  %9 = alloca i32, align 4
  store ptr %0, ptr %3, align 8
  call void @llvm.lifetime.start.p0(i64 8, ptr %4) #5
  %10 = load ptr, ptr %3, align 8
  %11 = getelementptr inbounds nuw %struct.FunctionCallInfoBaseData, ptr %10, i32 0, i32 1
  %12 = load ptr, ptr %11, align 8
  store ptr %12, ptr %4, align 8
  call void @llvm.lifetime.start.p0(i64 1, ptr %5) #5
  call void @llvm.lifetime.start.p0(i64 8, ptr %6) #5
  call void @llvm.lifetime.start.p0(i64 1, ptr %7) #5
  call void @llvm.lifetime.start.p0(i64 4, ptr %8) #5
  %13 = load ptr, ptr %4, align 8
  %14 = call i64 @WinGetFuncArgCurrent(ptr noundef %13, i32 noundef 1, ptr noundef %7)
  %15 = call i32 @DatumGetInt32(i64 noundef %14)
  store i32 %15, ptr %8, align 4
  %16 = load i8, ptr %7, align 1, !range !4, !noundef !5
  %17 = trunc i8 %16 to i1
  br i1 %17, label %18, label %24

18:                                               ; preds = %1
  br label %19

19:                                               ; preds = %18
  %20 = load ptr, ptr %3, align 8
  %21 = getelementptr inbounds nuw %struct.FunctionCallInfoBaseData, ptr %20, i32 0, i32 4
  store i8 1, ptr %21, align 4
  store i64 0, ptr %2, align 8
  store i32 1, ptr %9, align 4
  br label %61

22:                                               ; No predecessors!
  br label %23

23:                                               ; preds = %22
  br label %24

24:                                               ; preds = %23, %1
  %25 = load ptr, ptr %3, align 8
  %26 = getelementptr inbounds nuw %struct.FunctionCallInfoBaseData, ptr %25, i32 0, i32 0
  %27 = load ptr, ptr %26, align 8
  %28 = call zeroext i1 @get_fn_expr_arg_stable(ptr noundef %27, i32 noundef 1)
  %29 = zext i1 %28 to i8
  store i8 %29, ptr %5, align 1
  %30 = load i32, ptr %8, align 4
  %31 = icmp sle i32 %30, 0
  br i1 %31, label %32, label %44

32:                                               ; preds = %24
  br label %33

33:                                               ; preds = %32
  br i1 true, label %34, label %36

34:                                               ; preds = %33
  %35 = call zeroext i1 @errstart_cold(i32 noundef 21, ptr noundef null) #6
  br i1 %35, label %38, label %41

36:                                               ; preds = %33
  %37 = call zeroext i1 @errstart(i32 noundef 21, ptr noundef null)
  br i1 %37, label %38, label %41

38:                                               ; preds = %36, %34
  %39 = call i32 @errcode(i32 noundef 100925570)
  %40 = call i32 (ptr, ...) @errmsg(ptr noundef @.str.2)
  call void @errfinish(ptr noundef @.str.1, i32 noundef 707, ptr noundef @__func__.window_nth_value)
  br label %41

41:                                               ; preds = %38, %36, %34
  unreachable

42:                                               ; No predecessors!
  br label %43

43:                                               ; preds = %42
  br label %44

44:                                               ; preds = %43, %24
  %45 = load ptr, ptr %4, align 8
  %46 = load i32, ptr %8, align 4
  %47 = sub i32 %46, 1
  %48 = load i8, ptr %5, align 1, !range !4, !noundef !5
  %49 = trunc i8 %48 to i1
  %50 = call i64 @WinGetFuncArgInFrame(ptr noundef %45, i32 noundef 0, i32 noundef %47, i32 noundef 1, i1 noundef zeroext %49, ptr noundef %7, ptr noundef null)
  store i64 %50, ptr %6, align 8
  %51 = load i8, ptr %7, align 1, !range !4, !noundef !5
  %52 = trunc i8 %51 to i1
  br i1 %52, label %53, label %59

53:                                               ; preds = %44
  br label %54

54:                                               ; preds = %53
  %55 = load ptr, ptr %3, align 8
  %56 = getelementptr inbounds nuw %struct.FunctionCallInfoBaseData, ptr %55, i32 0, i32 4
  store i8 1, ptr %56, align 4
  store i64 0, ptr %2, align 8
  store i32 1, ptr %9, align 4
  br label %61

57:                                               ; No predecessors!
  br label %58

58:                                               ; preds = %57
  br label %59

59:                                               ; preds = %58, %44
  %60 = load i64, ptr %6, align 8
  store i64 %60, ptr %2, align 8
  store i32 1, ptr %9, align 4
  br label %61

61:                                               ; preds = %59, %54, %19
  call void @llvm.lifetime.end.p0(i64 4, ptr %8) #5
  call void @llvm.lifetime.end.p0(i64 1, ptr %7) #5
  call void @llvm.lifetime.end.p0(i64 8, ptr %6) #5
  call void @llvm.lifetime.end.p0(i64 1, ptr %5) #5
  call void @llvm.lifetime.end.p0(i64 8, ptr %4) #5
  %62 = load i64, ptr %2, align 8
  ret i64 %62
}