; Function Attrs: nounwind uwtable
define dso_local i64 @window_nth_value(ptr noundef captures(none) %0) local_unnamed_addr #0 {
  %2 = alloca i8, align 1
  %3 = getelementptr inbounds nuw i8, ptr %0, i64 8
  %4 = load ptr, ptr %3, align 8
  call void @llvm.lifetime.start.p0(i64 1, ptr nonnull %2) #6
  %5 = call i64 @WinGetFuncArgCurrent(ptr noundef %4, i32 noundef 1, ptr noundef nonnull %2) #6
  %6 = trunc i64 %5 to i32
  %7 = load i8, ptr %2, align 1, !range !6, !noundef !7
  %8 = trunc nuw i8 %7 to i1
  br i1 %8, label %.sink.split, label %9

9:                                                ; preds = %1
  %10 = load ptr, ptr %0, align 8
  %11 = call zeroext i1 @get_fn_expr_arg_stable(ptr noundef %10, i32 noundef 1) #6
  %12 = icmp slt i32 %6, 1
  br i1 %12, label %13, label %17

13:                                               ; preds = %9
  %14 = call zeroext i1 @errstart_cold(i32 noundef 21, ptr noundef null) #7
  call void @llvm.assume(i1 %14)
  %15 = call i32 @errcode(i32 noundef 100925570) #6
  %16 = call i32 (ptr, ...) @errmsg(ptr noundef nonnull @.str.2) #6
  call void @errfinish(ptr noundef nonnull @.str.1, i32 noundef 707, ptr noundef nonnull @__func__.window_nth_value) #6
  unreachable

17:                                               ; preds = %9
  %18 = add nsw i32 %6, -1
  %19 = call i64 @WinGetFuncArgInFrame(ptr noundef %4, i32 noundef 0, i32 noundef %18, i32 noundef 1, i1 noundef zeroext %11, ptr noundef nonnull %2, ptr noundef null) #6
  %20 = load i8, ptr %2, align 1, !range !6, !noundef !7
  %21 = trunc nuw i8 %20 to i1
  br i1 %21, label %.sink.split, label %23

.sink.split:                                      ; preds = %17, %1
  %22 = getelementptr inbounds nuw i8, ptr %0, i64 28
  store i8 1, ptr %22, align 4
  br label %23

23:                                               ; preds = %.sink.split, %17
  %.0 = phi i64 [ %19, %17 ], [ 0, %.sink.split ]
  call void @llvm.lifetime.end.p0(i64 1, ptr nonnull %2) #6
  ret i64 %.0
}